; Function Attrs: mustprogress nofree nounwind uwtable
define noundef nonnull ptr @_ZN7rocksdb4test16Uint64ComparatorEv() local_unnamed_addr #10 personality ptr @__gxx_personality_v0 {
  %1 = load atomic i8, ptr @_ZGVZN7rocksdb4test16Uint64ComparatorEvE10uint64comp acquire, align 8
  %2 = icmp eq i8 %1, 0
  br i1 %2, label %3, label %7, !prof !48

3:                                                ; preds = %0
  %4 = tail call i32 @__cxa_guard_acquire(ptr nonnull @_ZGVZN7rocksdb4test16Uint64ComparatorEvE10uint64comp) #34
  %.not = icmp eq i32 %4, 0
  br i1 %.not, label %7, label %5

5:                                                ; preds = %3
  tail call void @llvm.memset.p0.i64(ptr noundef nonnull align 8 dereferenceable(24) getelementptr inbounds nuw (i8, ptr @_ZZN7rocksdb4test16Uint64ComparatorEvE10uint64comp, i64 8), i8 0, i64 24, i1 false)
  store i64 0, ptr getelementptr inbounds nuw (i8, ptr @_ZZN7rocksdb4test16Uint64ComparatorEvE10uint64comp, i64 40), align 8, !tbaa !55
  store ptr getelementptr inbounds nuw inrange(-16, 256) (i8, ptr @_ZTVN7rocksdb4test12_GLOBAL__N_120Uint64ComparatorImplE, i64 16), ptr @_ZZN7rocksdb4test16Uint64ComparatorEvE10uint64comp, align 8, !tbaa !25
  store ptr getelementptr inbounds nuw inrange(-16, 24) (i8, ptr @_ZTVN7rocksdb4test12_GLOBAL__N_120Uint64ComparatorImplE, i64 288), ptr getelementptr inbounds nuw (i8, ptr @_ZZN7rocksdb4test16Uint64ComparatorEvE10uint64comp, i64 32), align 8, !tbaa !25
  %6 = tail call i32 @__cxa_atexit(ptr nonnull @_ZN7rocksdb10ComparatorD2Ev, ptr nonnull @_ZZN7rocksdb4test16Uint64ComparatorEvE10uint64comp, ptr nonnull @__dso_handle) #34
  tail call void @__cxa_guard_release(ptr nonnull @_ZGVZN7rocksdb4test16Uint64ComparatorEvE10uint64comp) #34
  br label %7

7:                                                ; preds = %5, %3, %0
  ret ptr @_ZZN7rocksdb4test16Uint64ComparatorEvE10uint64comp
}